******************************************************************************
             TMS320C2000 Linker PC v6.1.3                      
******************************************************************************
>> Linked Mon Sep 21 22:40:49 2015

OUTPUT FILE NAME:   <F:/studying/graduate/2014-9-22/lab/driveboard/mine/soft/15-7-16-7DOF/cdmcs_3dof/../Debug/cdmcs.out>
ENTRY POINT SYMBOL: "_c_int00"  address: 0000bb09


MEMORY CONFIGURATION

         name            origin    length      used     unused   attr    fill
----------------------  --------  ---------  --------  --------  ----  --------
PAGE 0:
  BEGIN                 00000000   00000002  00000002  00000000  RWIX
  BOOT_RSVD             00000002   0000004e  00000000  0000004e  RWIX
  RAMM0                 00000050   000003b0  00000000  000003b0  RWIX
  RAML                  00008000   00004000  00003ffb  00000005  RWIX
  ZONE7A                00200000   0000fc00  00000000  0000fc00  RWIX
  CSM_RSVD              0033ff80   00000076  00000000  00000076  RWIX
  CSM_PWL               0033fff8   00000008  00000000  00000008  RWIX
  ADC_CAL               00380080   00000009  00000007  00000002  RWIX
  IQTABLES              003fe000   00000b50  00000000  00000b50  RWIX
  IQTABLES2             003feb50   0000008c  00000000  0000008c  RWIX
  FPUTABLES             003febdc   000006a0  00000000  000006a0  RWIX
  BOOTROM               003ff27c   00000d44  00000000  00000d44  RWIX
  RESET                 003fffc0   00000002  00000000  00000002  RWIX

PAGE 1:
  RAMM                  00000400   00000400  000003e8  00000018  RWIX
  DEV_EMU               00000880   00000180  000000d0  000000b0  RWIX
  FLASH_REGS            00000a80   00000060  00000008  00000058  RWIX
  CSM                   00000ae0   00000010  00000010  00000000  RWIX
  ADC_MIRROR            00000b00   00000010  00000010  00000000  RWIX
  XINTF                 00000b20   00000020  0000001e  00000002  RWIX
  CPU_TIMER0            00000c00   00000008  00000008  00000000  RWIX
  CPU_TIMER1            00000c08   00000008  00000008  00000000  RWIX
  CPU_TIMER2            00000c10   00000008  00000008  00000000  RWIX
  PIE_CTRL              00000ce0   00000020  0000001a  00000006  RWIX
  PIE_VECT              00000d00   00000100  00000100  00000000  RWIX
  DMA                   00001000   00000200  000000e0  00000120  RWIX
  MCBSPA                00005000   00000040  00000025  0000001b  RWIX
  MCBSPB                00005040   00000040  00000025  0000001b  RWIX
  ECANA                 00006000   00000040  00000034  0000000c  RWIX
  ECANA_LAM             00006040   00000040  00000040  00000000  RWIX
  ECANA_MOTS            00006080   00000040  00000040  00000000  RWIX
  ECANA_MOTO            000060c0   00000040  00000040  00000000  RWIX
  ECANA_MBOX            00006100   00000100  00000100  00000000  RWIX
  ECANB                 00006200   00000040  00000034  0000000c  RWIX
  ECANB_LAM             00006240   00000040  00000040  00000000  RWIX
  ECANB_MOTS            00006280   00000040  00000040  00000000  RWIX
  ECANB_MOTO            000062c0   00000040  00000040  00000000  RWIX
  ECANB_MBOX            00006300   00000100  00000100  00000000  RWIX
  EPWM1                 00006800   00000022  00000022  00000000  RWIX
  EPWM2                 00006840   00000022  00000022  00000000  RWIX
  EPWM3                 00006880   00000022  00000022  00000000  RWIX
  EPWM4                 000068c0   00000022  00000022  00000000  RWIX
  EPWM5                 00006900   00000022  00000022  00000000  RWIX
  EPWM6                 00006940   00000022  00000022  00000000  RWIX
  ECAP1                 00006a00   00000020  00000020  00000000  RWIX
  ECAP2                 00006a20   00000020  00000020  00000000  RWIX
  ECAP3                 00006a40   00000020  00000020  00000000  RWIX
  ECAP4                 00006a60   00000020  00000020  00000000  RWIX
  ECAP5                 00006a80   00000020  00000020  00000000  RWIX
  ECAP6                 00006aa0   00000020  00000020  00000000  RWIX
  EQEP1                 00006b00   00000040  00000040  00000000  RWIX
  EQEP2                 00006b40   00000040  00000040  00000000  RWIX
  GPIOCTRL              00006f80   00000040  0000002e  00000012  RWIX
  GPIODAT               00006fc0   00000020  00000020  00000000  RWIX
  GPIOINT               00006fe0   00000020  0000000a  00000016  RWIX
  SYSTEM                00007010   00000020  00000020  00000000  RWIX
  SPIA                  00007040   00000010  00000010  00000000  RWIX
  SCIA                  00007050   00000010  00000010  00000000  RWIX
  XINTRUPT              00007070   00000010  00000010  00000000  RWIX
  ADC                   00007100   00000020  0000001e  00000002  RWIX
  SCIB                  00007750   00000010  00000010  00000000  RWIX
  SCIC                  00007770   00000010  00000010  00000000  RWIX
  I2CA                  00007900   00000040  00000022  0000001e  RWIX
  COM_REG               0000c000   00000400  00000400  00000000  RWIX
  RAMH                  0000c400   00003c00  00000854  000033ac  RWIX
  ZONE7B                0020fc00   00000400  00000000  00000400  RWIX
  CSM_PWL               0033fff8   00000008  00000008  00000000  RWIX


SECTION ALLOCATION MAP

 output                                  attributes/
section   page    origin      length       input sections
--------  ----  ----------  ----------   ----------------
codestart 
*          0    00000000    00000002     
                  00000000    00000002     DSP2833x_CodeStartBranch.obj (codestart)

.pinit     0    00008000    00000000     UNINITIALIZED

.text      0    00008000    00003f3b     
                  00008000    00000969     Algorithm.obj (.text)
                  00008969    00000908     rts2800_fpu32.lib : _printfi.obj (.text)
                  00009271    00000715     Ecan.obj (.text)
                  00009986    000006b5     QP_1.obj (.text)
                  0000a03b    0000037e     MotorControl.obj (.text)
                  0000a3b9    00000375     EPwmSetup.obj (.text)
                  0000a72e    00000323     DSP2833x_DefaultIsr.obj (.text:retain)
                  0000aa51    00000312     main.obj (.text)
                  0000ad63    000001c4     SciSetup.obj (.text)
                  0000af27    0000012c     DSP2833x_ECan.obj (.text)
                  0000b053    00000116     CopleyControl.obj (.text)
                  0000b169    00000107     rts2800_fpu32.lib : ll_div.obj (.text)
                  0000b270    000000f6     DSP2833x_Xintf.obj (.text)
                  0000b366    000000f3     DSP2833x_SysCtrl.obj (.text)
                  0000b459    000000d6     SciSetup.obj (.text:retain)
                  0000b52f    000000a1     DSP2833x_EPwm.obj (.text)
                  0000b5d0    0000009c     rts2800_fpu32.lib : fd_add.obj (.text)
                  0000b66c    0000008b                       : fd_div.obj (.text)
                  0000b6f7    00000088                       : fs_div.obj (.text)
                  0000b77f    00000083                       : fd_mpy.obj (.text)
                  0000b802    0000007c     DSP2833x_CpuTimers.obj (.text)
                  0000b87e    0000006a     rts2800_fpu32.lib : exp.obj (.text)
                  0000b8e8    00000063                       : log.obj (.text)
                  0000b94b    00000061                       : cos.obj (.text)
                  0000b9ac    0000005a                       : pow.obj (.text)
                  0000ba06    00000058     TimerSetup.obj (.text:retain)
                  0000ba5e    00000057     rts2800_fpu32.lib : sin.obj (.text)
                  0000bab5    00000054                       : _log.obj (.text)
                  0000bb09    00000046                       : boot.obj (.text)
                  0000bb4f    00000045     DSP2833x_Sci.obj (.text)
                  0000bb94    00000044     Fpga.obj (.text)
                  0000bbd8    00000039     TimerSetup.obj (.text)
                  0000bc11    00000035     rts2800_fpu32.lib : ldexp.obj (.text)
                  0000bc46    00000031                       : atoi.obj (.text)
                  0000bc77    0000002f                       : sprintf.obj (.text)
                  0000bca6    0000002c     DSP2833x_Spi.obj (.text)
                  0000bcd2    0000002c     rts2800_fpu32.lib : ltoa.obj (.text)
                  0000bcfe    0000002a                       : fd_cmp.obj (.text)
                  0000bd28    0000002a                       : l_div.obj (.text)
                  0000bd52    00000028     DSP2833x_PieCtrl.obj (.text)
                  0000bd7a    00000023     rts2800_fpu32.lib : sqrt.obj (.text)
                  0000bd9d    00000022                       : i_div.obj (.text)
                  0000bdbf    00000021                       : fd_toi.obj (.text)
                  0000bde0    00000021                       : memcpy_ff.obj (.text)
                  0000be01    00000020     DSP2833x_PieVect.obj (.text)
                  0000be21    0000001f     rts2800_fpu32.lib : fd_tol.obj (.text)
                  0000be40    0000001e                       : ll_cmp.obj (.text)
                  0000be5e    0000001c                       : fs_tofd.obj (.text)
                  0000be7a    0000001c                       : l_tofd.obj (.text)
                  0000be96    00000019                       : args_main.obj (.text)
                  0000beaf    00000019                       : exit.obj (.text)
                  0000bec8    00000016                       : frexp.obj (.text)
                  0000bede    00000014                       : ll_mpy.obj (.text)
                  0000bef2    0000000e                       : fd_sub.obj (.text)
                  0000bf00    0000000d                       : memccpy.obj (.text)
                  0000bf0d    00000009                       : _lock.obj (.text)
                  0000bf16    00000009                       : fd_neg.obj (.text)
                  0000bf1f    00000008     DSP2833x_CodeStartBranch.obj (.text)
                  0000bf27    00000008     rts2800_fpu32.lib : strlen.obj (.text)
                  0000bf2f    00000007                       : memset.obj (.text)
                  0000bf36    00000005                       : strcpy.obj (.text)

.cinit     0    0000bf3b    000000a1     
                  0000bf3b    0000002c     main.obj (.cinit)
                  0000bf67    00000022     Fpga.obj (.cinit)
                  0000bf89    00000019     MotorControl.obj (.cinit)
                  0000bfa2    00000014     SciSetup.obj (.cinit)
                  0000bfb6    0000000c     TimerSetup.obj (.cinit)
                  0000bfc2    0000000a     rts2800_fpu32.lib : _lock.obj (.cinit)
                  0000bfcc    0000000a                       : exit.obj (.cinit)
                  0000bfd6    00000004                       : errno.obj (.cinit)
                  0000bfda    00000002     --HOLE-- [fill = 0]

ramfuncs   0    0000bfdc    0000001f     
                  0000bfdc    0000001b     DSP2833x_SysCtrl.obj (ramfuncs)
                  0000bff7    00000004     DSP2833x_usDelay.obj (ramfuncs)

csm_rsvd   0    0033ff80    00000000     DSECT

csmpasswds 
*          0    0033fff8    00000000     DSECT

.adc_cal   0    00380080    00000007     NOLOAD SECTION
                  00380080    00000007     DSP2833x_ADC_cal.obj (.adc_cal)

.reset     0    003fffc0    00000002     DSECT
                  003fffc0    00000002     rts2800_fpu32.lib : boot.obj (.reset)

.stack     1    00000400    000003e8     UNINITIALIZED
                  00000400    000003e8     --HOLE--

DevEmuRegsFile 
*          1    00000880    000000d0     UNINITIALIZED
                  00000880    000000d0     DSP2833x_GlobalVariableDefs.obj (DevEmuRegsFile)

FlashRegsFile 
*          1    00000a80    00000008     UNINITIALIZED
                  00000a80    00000008     DSP2833x_GlobalVariableDefs.obj (FlashRegsFile)

CsmRegsFile 
*          1    00000ae0    00000010     UNINITIALIZED
                  00000ae0    00000010     DSP2833x_GlobalVariableDefs.obj (CsmRegsFile)

AdcMirrorFile 
*          1    00000b00    00000010     UNINITIALIZED
                  00000b00    00000010     DSP2833x_GlobalVariableDefs.obj (AdcMirrorFile)

XintfRegsFile 
*          1    00000b20    0000001e     UNINITIALIZED
                  00000b20    0000001e     DSP2833x_GlobalVariableDefs.obj (XintfRegsFile)

CpuTimer0RegsFile 
*          1    00000c00    00000008     UNINITIALIZED
                  00000c00    00000008     DSP2833x_GlobalVariableDefs.obj (CpuTimer0RegsFile)

CpuTimer1RegsFile 
*          1    00000c08    00000008     UNINITIALIZED
                  00000c08    00000008     DSP2833x_GlobalVariableDefs.obj (CpuTimer1RegsFile)

CpuTimer2RegsFile 
*          1    00000c10    00000008     UNINITIALIZED
                  00000c10    00000008     DSP2833x_GlobalVariableDefs.obj (CpuTimer2RegsFile)

PieCtrlRegsFile 
*          1    00000ce0    0000001a     UNINITIALIZED
                  00000ce0    0000001a     DSP2833x_GlobalVariableDefs.obj (PieCtrlRegsFile)

PieVectTableFile 
*          1    00000d00    00000100     UNINITIALIZED
                  00000d00    00000100     DSP2833x_GlobalVariableDefs.obj (PieVectTableFile)

DmaRegsFile 
*          1    00001000    000000e0     UNINITIALIZED
                  00001000    000000e0     DSP2833x_GlobalVariableDefs.obj (DmaRegsFile)

McbspaRegsFile 
*          1    00005000    00000025     UNINITIALIZED
                  00005000    00000025     DSP2833x_GlobalVariableDefs.obj (McbspaRegsFile)

McbspbRegsFile 
*          1    00005040    00000025     UNINITIALIZED
                  00005040    00000025     DSP2833x_GlobalVariableDefs.obj (McbspbRegsFile)

ECanaRegsFile 
*          1    00006000    00000034     UNINITIALIZED
                  00006000    00000034     DSP2833x_GlobalVariableDefs.obj (ECanaRegsFile)

ECanaLAMRegsFile 
*          1    00006040    00000040     UNINITIALIZED
                  00006040    00000040     DSP2833x_GlobalVariableDefs.obj (ECanaLAMRegsFile)

ECanaMOTSRegsFile 
*          1    00006080    00000040     UNINITIALIZED
                  00006080    00000040     DSP2833x_GlobalVariableDefs.obj (ECanaMOTSRegsFile)

ECanaMOTORegsFile 
*          1    000060c0    00000040     UNINITIALIZED
                  000060c0    00000040     DSP2833x_GlobalVariableDefs.obj (ECanaMOTORegsFile)

ECanaMboxesFile 
*          1    00006100    00000100     UNINITIALIZED
                  00006100    00000100     DSP2833x_GlobalVariableDefs.obj (ECanaMboxesFile)

ECanbRegsFile 
*          1    00006200    00000034     UNINITIALIZED
                  00006200    00000034     DSP2833x_GlobalVariableDefs.obj (ECanbRegsFile)

ECanbLAMRegsFile 
*          1    00006240    00000040     UNINITIALIZED
                  00006240    00000040     DSP2833x_GlobalVariableDefs.obj (ECanbLAMRegsFile)

ECanbMOTSRegsFile 
*          1    00006280    00000040     UNINITIALIZED
                  00006280    00000040     DSP2833x_GlobalVariableDefs.obj (ECanbMOTSRegsFile)

ECanbMOTORegsFile 
*          1    000062c0    00000040     UNINITIALIZED
                  000062c0    00000040     DSP2833x_GlobalVariableDefs.obj (ECanbMOTORegsFile)

ECanbMboxesFile 
*          1    00006300    00000100     UNINITIALIZED
                  00006300    00000100     DSP2833x_GlobalVariableDefs.obj (ECanbMboxesFile)

EPwm1RegsFile 
*          1    00006800    00000022     UNINITIALIZED
                  00006800    00000022     DSP2833x_GlobalVariableDefs.obj (EPwm1RegsFile)

EPwm2RegsFile 
*          1    00006840    00000022     UNINITIALIZED
                  00006840    00000022     DSP2833x_GlobalVariableDefs.obj (EPwm2RegsFile)

EPwm3RegsFile 
*          1    00006880    00000022     UNINITIALIZED
                  00006880    00000022     DSP2833x_GlobalVariableDefs.obj (EPwm3RegsFile)

EPwm4RegsFile 
*          1    000068c0    00000022     UNINITIALIZED
                  000068c0    00000022     DSP2833x_GlobalVariableDefs.obj (EPwm4RegsFile)

EPwm5RegsFile 
*          1    00006900    00000022     UNINITIALIZED
                  00006900    00000022     DSP2833x_GlobalVariableDefs.obj (EPwm5RegsFile)

EPwm6RegsFile 
*          1    00006940    00000022     UNINITIALIZED
                  00006940    00000022     DSP2833x_GlobalVariableDefs.obj (EPwm6RegsFile)

ECap1RegsFile 
*          1    00006a00    00000020     UNINITIALIZED
                  00006a00    00000020     DSP2833x_GlobalVariableDefs.obj (ECap1RegsFile)

ECap2RegsFile 
*          1    00006a20    00000020     UNINITIALIZED
                  00006a20    00000020     DSP2833x_GlobalVariableDefs.obj (ECap2RegsFile)

ECap3RegsFile 
*          1    00006a40    00000020     UNINITIALIZED
                  00006a40    00000020     DSP2833x_GlobalVariableDefs.obj (ECap3RegsFile)

ECap4RegsFile 
*          1    00006a60    00000020     UNINITIALIZED
                  00006a60    00000020     DSP2833x_GlobalVariableDefs.obj (ECap4RegsFile)

ECap5RegsFile 
*          1    00006a80    00000020     UNINITIALIZED
                  00006a80    00000020     DSP2833x_GlobalVariableDefs.obj (ECap5RegsFile)

ECap6RegsFile 
*          1    00006aa0    00000020     UNINITIALIZED
                  00006aa0    00000020     DSP2833x_GlobalVariableDefs.obj (ECap6RegsFile)

EQep1RegsFile 
*          1    00006b00    00000040     UNINITIALIZED
                  00006b00    00000040     DSP2833x_GlobalVariableDefs.obj (EQep1RegsFile)

EQep2RegsFile 
*          1    00006b40    00000040     UNINITIALIZED
                  00006b40    00000040     DSP2833x_GlobalVariableDefs.obj (EQep2RegsFile)

GpioCtrlRegsFile 
*          1    00006f80    0000002e     UNINITIALIZED
                  00006f80    0000002e     DSP2833x_GlobalVariableDefs.obj (GpioCtrlRegsFile)

GpioDataRegsFile 
*          1    00006fc0    00000020     UNINITIALIZED
                  00006fc0    00000020     DSP2833x_GlobalVariableDefs.obj (GpioDataRegsFile)

GpioIntRegsFile 
*          1    00006fe0    0000000a     UNINITIALIZED
                  00006fe0    0000000a     DSP2833x_GlobalVariableDefs.obj (GpioIntRegsFile)

SysCtrlRegsFile 
*          1    00007010    00000020     UNINITIALIZED
                  00007010    00000020     DSP2833x_GlobalVariableDefs.obj (SysCtrlRegsFile)

SpiaRegsFile 
*          1    00007040    00000010     UNINITIALIZED
                  00007040    00000010     DSP2833x_GlobalVariableDefs.obj (SpiaRegsFile)

SciaRegsFile 
*          1    00007050    00000010     UNINITIALIZED
                  00007050    00000010     DSP2833x_GlobalVariableDefs.obj (SciaRegsFile)

XIntruptRegsFile 
*          1    00007070    00000010     UNINITIALIZED
                  00007070    00000010     DSP2833x_GlobalVariableDefs.obj (XIntruptRegsFile)

AdcRegsFile 
*          1    00007100    0000001e     UNINITIALIZED
                  00007100    0000001e     DSP2833x_GlobalVariableDefs.obj (AdcRegsFile)

ScibRegsFile 
*          1    00007750    00000010     UNINITIALIZED
                  00007750    00000010     DSP2833x_GlobalVariableDefs.obj (ScibRegsFile)

ScicRegsFile 
*          1    00007770    00000010     UNINITIALIZED
                  00007770    00000010     DSP2833x_GlobalVariableDefs.obj (ScicRegsFile)

I2caRegsFile 
*          1    00007900    00000022     UNINITIALIZED
                  00007900    00000022     DSP2833x_GlobalVariableDefs.obj (I2caRegsFile)

com_reg    1    0000c000    00000400     UNINITIALIZED
                  0000c000    00000400     SciSetup.obj (com_reg)

.ebss      1    0000c400    00000572     UNINITIALIZED
                  0000c400    00000240     SciSetup.obj (.ebss)
                  0000c640    000001a0     MotorControl.obj (.ebss)
                  0000c7e0    00000018     DSP2833x_CpuTimers.obj (.ebss)
                  0000c7f8    00000004     rts2800_fpu32.lib : _lock.obj (.ebss)
                  0000c7fc    00000004                       : exit.obj (.ebss)
                  0000c800    00000160     main.obj (.ebss)
                  0000c960    0000000e     Fpga.obj (.ebss)
                  0000c96e    00000003     TimerSetup.obj (.ebss)
                  0000c971    00000001     rts2800_fpu32.lib : errno.obj (.ebss)

.econst    1    0000c972    000002e2     
                  0000c972    00000101     rts2800_fpu32.lib : ctype.obj (.econst:.string:__ctypes_)
                  0000ca73    00000001     --HOLE-- [fill = 0]
                  0000ca74    00000100     DSP2833x_PieVect.obj (.econst)
                  0000cb74    00000024     rts2800_fpu32.lib : _printfi.obj (.econst:.string)
                  0000cb98    00000018     main.obj (.econst:_$P$T0$1)
                  0000cbb0    00000018     rts2800_fpu32.lib : _printfi.obj (.econst)
                  0000cbc8    00000014     EPwmSetup.obj (.econst:_B)
                  0000cbdc    00000014     EPwmSetup.obj (.econst:_K)
                  0000cbf0    00000014     main.obj (.econst:_ZeroDutyCycleArray)
                  0000cc04    00000010     main.obj (.econst:.string)
                  0000cc14    0000000a     EPwmSetup.obj (.econst:_RR)
                  0000cc1e    00000008     MotorControl.obj (.econst)
                  0000cc26    00000006     Algorithm.obj (.econst:_$P$T0$1)
                  0000cc2c    00000006     Algorithm.obj (.econst:_$P$T1$2)
                  0000cc32    00000006     main.obj (.econst:_$P$T1$2)
                  0000cc38    00000006     Algorithm.obj (.econst:_$P$T2$3)
                  0000cc3e    00000006     main.obj (.econst:_$P$T2$3)
                  0000cc44    00000006     main.obj (.econst:_$P$T3$4)
                  0000cc4a    00000004     Algorithm.obj (.econst)
                  0000cc4e    00000004     CopleyControl.obj (.econst)
                  0000cc52    00000002     main.obj (.econst)

CsmPwlFile 
*          1    0033fff8    00000008     UNINITIALIZED
                  0033fff8    00000008     DSP2833x_GlobalVariableDefs.obj (CsmPwlFile)


GLOBAL SYMBOLS: SORTED ALPHABETICALLY BY Name 

address    name
--------   ----
00008000   .text
0000beaf   C$$EXIT
0000b5d0   FD$$ADD
0000bcfe   FD$$CMP
0000b66c   FD$$DIV
0000b77f   FD$$MPY
0000bf16   FD$$NEG
0000bef2   FD$$SUB
0000bdbf   FD$$TOI
0000be21   FD$$TOL
0000b6f7   FS$$DIV
0000be5e   FS$$TOFD
0000bd9d   I$$DIV
0000bdae   I$$MOD
0000bd28   L$$DIV
0000bd37   L$$MOD
0000be7a   L$$TOFD
0000be40   LL$$CMP
0000b169   LL$$DIV
0000b1a5   LL$$MOD
0000bede   LL$$MPY
0000bd45   UL$$DIV
0000bd4c   UL$$MOD
0000be52   ULL$$CMP
0000b1df   ULL$$DIV
0000b20e   ULL$$MOD
0000c96c   _ABS_ENCODER
0000a814   _ADCINT_ISR
00380080   _ADC_cal
00000b00   _AdcMirror
00007100   _AdcRegs
0000c814   _AddrTrajCurrJointAngles
0000c822   _AddrTrajJointAngles
0000cbc8   _B
0000bba9   _BlinkLED
0000cc20   _C2R
0000c000   _COM_REG
0000cc52   _CONTROL_FREQ
0000cc50   _COPLEY_MAX_VELOCITY
0000cc1e   _CURRENT_TENSION_FACTOR
0000bbdc   _ClrTimer1Flag
0000bbe4   _ClrTimer2Flag
0000bbec   _ClrTimesUpFlag
0000b843   _ConfigCpuTimer
0000a052   _ConstrainCmdVel
0000889a   _ControlT
0000c7f0   _CpuTimer0
00000c00   _CpuTimer0Regs
0000c7e0   _CpuTimer1
00000c08   _CpuTimer1Regs
0000c7e8   _CpuTimer2
00000c10   _CpuTimer2Regs
0033fff8   _CsmPwl
00000ae0   _CsmRegs
0000b428   _CsmUnlock
0000a742   _DATALOG_ISR
0000a936   _DINTCH1_ISR
0000a940   _DINTCH2_ISR
0000a94a   _DINTCH3_ISR
0000a954   _DINTCH4_ISR
0000a95e   _DINTCH5_ISR
0000a968   _DINTCH6_ISR
0000bff7   _DSP28x_usDelay
0000cc4e   _DUTY_CYCLE_ZERO
00000880   _DevEmuRegs
0000b379   _DisableDog
00001000   _DmaRegs
00008121   _EA2SO3
0000a9c2   _ECAN0INTA_ISR
0000a9d6   _ECAN0INTB_ISR
0000a9cc   _ECAN1INTA_ISR
0000a9e0   _ECAN1INTB_ISR
0000a8aa   _ECAP1_INT_ISR
0000a8b4   _ECAP2_INT_ISR
0000a8be   _ECAP3_INT_ISR
0000a8c8   _ECAP4_INT_ISR
0000a8d2   _ECAP5_INT_ISR
0000a8dc   _ECAP6_INT_ISR
00006040   _ECanaLAMRegs
000060c0   _ECanaMOTORegs
00006080   _ECanaMOTSRegs
00006100   _ECanaMboxes
00006000   _ECanaRegs
00006240   _ECanbLAMRegs
000062c0   _ECanbMOTORegs
00006280   _ECanbMOTSRegs
00006300   _ECanbMboxes
00006200   _ECanbRegs
00006a00   _ECap1Regs
00006a20   _ECap2Regs
00006a40   _ECap3Regs
00006a60   _ECap4Regs
00006a80   _ECap5Regs
00006aa0   _ECap6Regs
0000aa30   _EMPTY_ISR
0000a756   _EMUINT_ISR
0000c962   _ENCODER_RD
0000a86e   _EPWM1_INT_ISR
0000a832   _EPWM1_TZINT_ISR
0000a878   _EPWM2_INT_ISR
0000a83c   _EPWM2_TZINT_ISR
0000a882   _EPWM3_INT_ISR
0000a846   _EPWM3_TZINT_ISR
0000a88c   _EPWM4_INT_ISR
0000a850   _EPWM4_TZINT_ISR
0000a896   _EPWM5_INT_ISR
0000a85a   _EPWM5_TZINT_ISR
0000a8a0   _EPWM6_INT_ISR
0000a864   _EPWM6_TZINT_ISR
0000a3b9   _EPwm1Config
00006800   _EPwm1Regs
0000a427   _EPwm2Config
00006840   _EPwm2Regs
0000a495   _EPwm3Config
00006880   _EPwm3Regs
0000a503   _EPwm4Config
000068c0   _EPwm4Regs
0000a571   _EPwm5Config
00006900   _EPwm5Regs
0000a5df   _EPwm6Config
00006940   _EPwm6Regs
0000a64d   _EPwmSetup
0000a8e6   _EQEP1_INT_ISR
0000a8f0   _EQEP2_INT_ISR
00006b00   _EQep1Regs
00006b40   _EQep2Regs
0000bd71   _EnableInterrupts
0000bb94   _EncoderRd
0000c964   _ExRamStart
0000cc22   _FS
0000a0ff   _FilterIIR
0000ae74   _FindFrameHeader
00000a80   _FlashRegs
000083c6   _FootPoint
0000a6e4   _GetDutyCycle
0000bbb2   _GetLED
00006f80   _GpioCtrlRegs
00006fc0   _GpioDataRegs
00006fe0   _GpioIntRegs
0000a972   _I2CINT1A_ISR
0000a97c   _I2CINT2A_ISR
00007900   _I2caRegs
0000a76a   _ILLEGAL_ISR
00009499   _IMU1_GotoCmd
00009594   _IMU1_SetOffset
0000968f   _IMU1_read_LpCan
000094ec   _IMU2_GotoCmd
000095e7   _IMU2_SetOffset
00009777   _IMU2_read_LpCan
00009540   _IMU3_GotoCmd
0000963b   _IMU3_SetOffset
00009866   _IMU3_read_LpCan
00009958   _IMU_GotoStream
00009477   _IMU_read_CANopen
0000c840   _IMUdata
0000c852   _IMUhex
0000c966   _INC_ENCODER
0000a72e   _INT13_ISR
0000a738   _INT14_ISR
0000cc4a   _INV_MOTOR_RADIUS
0000b459   _ISRScicRx
0000b4c4   _ISRScicTx
0000ba06   _ISRTimer0
0000abe2   _InitAllMotor
0000b802   _InitCpuTimers
0000af27   _InitECan
0000b02a   _InitECanGpio
0000af2c   _InitECana
0000b02f   _InitECanaGpio
0000afab   _InitECanb
0000b03f   _InitECanbGpio
0000b52f   _InitEPwm
0000b53d   _InitEPwm1Gpio
0000b54f   _InitEPwm2Gpio
0000b561   _InitEPwm3Gpio
0000b575   _InitEPwm4Gpio
0000b589   _InitEPwm5Gpio
0000b59b   _InitEPwm6Gpio
0000b530   _InitEPwmGpio
0000b5ad   _InitEPwmSyncGpio
0000bfdc   _InitFlash
0000a0d0   _InitIIR2
0000a03b   _InitMVP
0000a157   _InitMotor
0000b114   _InitMotorModel
00009271   _InitMyEcan
0000a0ad   _InitPID
0000b3cd   _InitPeripheralClocks
0000bd52   _InitPieCtrl
0000be01   _InitPieVectTable
0000b381   _InitPll
0000bb4f   _InitSci
0000bb50   _InitSciGpio
0000bb53   _InitSciaGpio
0000bb68   _InitScibGpio
0000bb7e   _InitScicGpio
0000bca6   _InitSpi
0000bca7   _InitSpiGpio
0000bcaa   _InitSpiaGpio
0000b366   _InitSysCtrl
0000b5c1   _InitTzGpio
0000b270   _InitXintf
0000b30c   _InitXintf16Gpio
0000b2c5   _InitXintf32Gpio
00009454   _InverseOrder32
0000bbd8   _IsTimer1Up
0000bbe0   _IsTimer2Up
0000bbe8   _IsTimesUp
0000c659   _JointEncCnt
0000cbdc   _K
0000cc4c   _LAMBDA
0000c968   _LED_ADD
0000aa26   _LUF_ISR
0000aa1c   _LVF_ISR
0000c8c0   _MM
0000a922   _MRINTA_ISR
0000a90e   _MRINTB_ISR
0000a92c   _MXINTA_ISR
0000a918   _MXINTB_ISR
00008511   _MakeF
000081e5   _MatMultVec
00008000   _Matrix33Mult
00005000   _McbspaRegs
00005040   _McbspbRegs
0000c880   _MechPara
0000c6c0   _Motor
0000c64a   _MotorEncCnt
0000a760   _NMI_ISR
00008350   _Normalization
0000aa3d   _PIE_RESERVED
00000ce0   _PieCtrlRegs
00000d00   _PieVectTable
0000ca74   _PieVectTableInit
00009afb   _QP
0000c680   _QxIIR
0000c6a4   _QyIIR
0000c692   _QzIIR
0000cc14   _RR
0000a74c   _RTOSINT_ISR
0000ade0   _RcvMsg2DutyCycle
0000bbbf   _ReadTension
0000a2c9   _ResetMotorPosCnt
0000a99a   _SCIRXINTA_ISR
0000a9ae   _SCIRXINTB_ISR
0000a986   _SCIRXINTC_ISR
0000a9a4   _SCITXINTA_ISR
0000a9b8   _SCITXINTB_ISR
0000a990   _SCITXINTC_ISR
0000a7ec   _SEQ1INT_ISR
0000a7f6   _SEQ2INT_ISR
0000a8fa   _SPIRXINTA_ISR
0000a904   _SPITXINTA_ISR
00007050   _SciaRegs
00007750   _ScibRegs
0000ae35   _ScicFifoInit
0000ad63   _ScicInit
0000c440   _ScicRcvBuf
0000c403   _ScicRcvBufIndex
0000c402   _ScicRcvBufNum
00007770   _ScicRegs
0000ad86   _ScicXmt
0000c540   _ScicXmtBuf
0000c401   _ScicXmtBufIndex
0000c400   _ScicXmtBufNum
0000ae6f   _ScicXmtStart
0000ac74   _ScicXmtStatus
0000ad47   _ScicXmtTransferStatus
0000b36f   _ServiceDog
0000a66c   _SetEPwm
0000bbb6   _SetLED
0000a1bf   _SetMotorSpeed
0000a2e2   _SetMotorTorque
0000b053   _SetVelocity
000085c9   _SolveJacob
000083ab   _SolveP
000085a6   _SolveTmpVec
00007040   _SpiaRegs
00007010   _SysCtrlRegs
0000c96a   _TENSION_SENSOR
0000a81e   _TINT0_ISR
0000c651   _TensionCnt
0000c830   _TensionT
0000c970   _Timer1Flag
0000c96f   _Timer2Flag
0000bbf0   _TimerSetup
0000c96e   _TimesUpFlag
00008568   _TransformF
0000a7ce   _USER10_ISR
0000a7d8   _USER11_ISR
0000a7e2   _USER12_ISR
0000a774   _USER1_ISR
0000a77e   _USER2_ISR
0000a788   _USER3_ISR
0000a792   _USER4_ISR
0000a79c   _USER5_ISR
0000a7a6   _USER6_ISR
0000a7b0   _USER7_ISR
0000a7ba   _USER8_ISR
0000a7c4   _USER9_ISR
0000a29e   _UpdateAllState
0000cc24   _VLOOP_CONTROL_SP
000082c7   _VecAdd
000081cb   _VecAssigned
000082ed   _VecCross
0000832e   _VecDot
00008243   _VecMultMat
000082a1   _VecSub
0000a828   _WAKEINT_ISR
0000a800   _XINT1_ISR
0000a80a   _XINT2_ISR
0000a9ea   _XINT3_ISR
0000a9f4   _XINT4_ISR
0000a9fe   _XINT5_ISR
0000aa08   _XINT6_ISR
0000aa12   _XINT7_ISR
00007070   _XIntruptRegs
00000b20   _XintfRegs
0000cbf0   _ZeroDutyCycleArray
000007e8   __STACK_END
000003e8   __STACK_SIZE
00000001   __TI_args_main
ffffffff   ___binit__
ffffffff   ___c_args__
0000bf3b   ___cinit__
0000bf3b   ___etext__
0000bde0   ___memcpy_ff
ffffffff   ___pinit__
00008000   ___text__
0000be96   __args_main
0000c7fc   __cleanup_ptr
0000c972   __ctypes_
0000c7fe   __dtors_ptr
0000c7fa   __lock
0000bab5   __log
0000bf15   __nop
0000916e   __printfi
0000bf11   __register_lock
0000bf0d   __register_unlock
00000400   __stack
0000c7f8   __unlock
0000beaf   _abort
0000c802   _ans
0000bc46   _atoi
0000bb09   _c_int00
0000b94b   _cos
0000c971   _errno
0000beb1   _exit
0000b87e   _exp
0000bec8   _frexp
00009986   _fun2
0000bc11   _ldexp
0000c960   _led
0000b8e8   _log
0000bcd2   _ltoa
0000aa51   _main
0000bf00   _memccpy
0000bf2f   _memset
0000c800   _msg
0000c640   _pQxIIR
0000c642   _pQyIIR
0000c646   _pQzIIR
0000b9ac   _pow
0000aa47   _rsvd_ISR
0000adb1   _scic_msg
0000ad75   _scic_xmit
0000ba5e   _sin
0000bc77   _sprintf
0000bd7a   _sqrt
0000bf36   _strcpy
0000bf27   _strlen
0000c80c   _tension
0000c662   _torqueOutIIR2
0000c804   _x
ffffffff   binit
0000bf3b   cinit
00000000   code_start
0000bf3b   etext
ffffffff   pinit


GLOBAL SYMBOLS: SORTED BY Symbol Address 

address    name
--------   ----
00000000   code_start
00000001   __TI_args_main
000003e8   __STACK_SIZE
00000400   __stack
000007e8   __STACK_END
00000880   _DevEmuRegs
00000a80   _FlashRegs
00000ae0   _CsmRegs
00000b00   _AdcMirror
00000b20   _XintfRegs
00000c00   _CpuTimer0Regs
00000c08   _CpuTimer1Regs
00000c10   _CpuTimer2Regs
00000ce0   _PieCtrlRegs
00000d00   _PieVectTable
00001000   _DmaRegs
00005000   _McbspaRegs
00005040   _McbspbRegs
00006000   _ECanaRegs
00006040   _ECanaLAMRegs
00006080   _ECanaMOTSRegs
000060c0   _ECanaMOTORegs
00006100   _ECanaMboxes
00006200   _ECanbRegs
00006240   _ECanbLAMRegs
00006280   _ECanbMOTSRegs
000062c0   _ECanbMOTORegs
00006300   _ECanbMboxes
00006800   _EPwm1Regs
00006840   _EPwm2Regs
00006880   _EPwm3Regs
000068c0   _EPwm4Regs
00006900   _EPwm5Regs
00006940   _EPwm6Regs
00006a00   _ECap1Regs
00006a20   _ECap2Regs
00006a40   _ECap3Regs
00006a60   _ECap4Regs
00006a80   _ECap5Regs
00006aa0   _ECap6Regs
00006b00   _EQep1Regs
00006b40   _EQep2Regs
00006f80   _GpioCtrlRegs
00006fc0   _GpioDataRegs
00006fe0   _GpioIntRegs
00007010   _SysCtrlRegs
00007040   _SpiaRegs
00007050   _SciaRegs
00007070   _XIntruptRegs
00007100   _AdcRegs
00007750   _ScibRegs
00007770   _ScicRegs
00007900   _I2caRegs
00008000   .text
00008000   _Matrix33Mult
00008000   ___text__
00008121   _EA2SO3
000081cb   _VecAssigned
000081e5   _MatMultVec
00008243   _VecMultMat
000082a1   _VecSub
000082c7   _VecAdd
000082ed   _VecCross
0000832e   _VecDot
00008350   _Normalization
000083ab   _SolveP
000083c6   _FootPoint
00008511   _MakeF
00008568   _TransformF
000085a6   _SolveTmpVec
000085c9   _SolveJacob
0000889a   _ControlT
0000916e   __printfi
00009271   _InitMyEcan
00009454   _InverseOrder32
00009477   _IMU_read_CANopen
00009499   _IMU1_GotoCmd
000094ec   _IMU2_GotoCmd
00009540   _IMU3_GotoCmd
00009594   _IMU1_SetOffset
000095e7   _IMU2_SetOffset
0000963b   _IMU3_SetOffset
0000968f   _IMU1_read_LpCan
00009777   _IMU2_read_LpCan
00009866   _IMU3_read_LpCan
00009958   _IMU_GotoStream
00009986   _fun2
00009afb   _QP
0000a03b   _InitMVP
0000a052   _ConstrainCmdVel
0000a0ad   _InitPID
0000a0d0   _InitIIR2
0000a0ff   _FilterIIR
0000a157   _InitMotor
0000a1bf   _SetMotorSpeed
0000a29e   _UpdateAllState
0000a2c9   _ResetMotorPosCnt
0000a2e2   _SetMotorTorque
0000a3b9   _EPwm1Config
0000a427   _EPwm2Config
0000a495   _EPwm3Config
0000a503   _EPwm4Config
0000a571   _EPwm5Config
0000a5df   _EPwm6Config
0000a64d   _EPwmSetup
0000a66c   _SetEPwm
0000a6e4   _GetDutyCycle
0000a72e   _INT13_ISR
0000a738   _INT14_ISR
0000a742   _DATALOG_ISR
0000a74c   _RTOSINT_ISR
0000a756   _EMUINT_ISR
0000a760   _NMI_ISR
0000a76a   _ILLEGAL_ISR
0000a774   _USER1_ISR
0000a77e   _USER2_ISR
0000a788   _USER3_ISR
0000a792   _USER4_ISR
0000a79c   _USER5_ISR
0000a7a6   _USER6_ISR
0000a7b0   _USER7_ISR
0000a7ba   _USER8_ISR
0000a7c4   _USER9_ISR
0000a7ce   _USER10_ISR
0000a7d8   _USER11_ISR
0000a7e2   _USER12_ISR
0000a7ec   _SEQ1INT_ISR
0000a7f6   _SEQ2INT_ISR
0000a800   _XINT1_ISR
0000a80a   _XINT2_ISR
0000a814   _ADCINT_ISR
0000a81e   _TINT0_ISR
0000a828   _WAKEINT_ISR
0000a832   _EPWM1_TZINT_ISR
0000a83c   _EPWM2_TZINT_ISR
0000a846   _EPWM3_TZINT_ISR
0000a850   _EPWM4_TZINT_ISR
0000a85a   _EPWM5_TZINT_ISR
0000a864   _EPWM6_TZINT_ISR
0000a86e   _EPWM1_INT_ISR
0000a878   _EPWM2_INT_ISR
0000a882   _EPWM3_INT_ISR
0000a88c   _EPWM4_INT_ISR
0000a896   _EPWM5_INT_ISR
0000a8a0   _EPWM6_INT_ISR
0000a8aa   _ECAP1_INT_ISR
0000a8b4   _ECAP2_INT_ISR
0000a8be   _ECAP3_INT_ISR
0000a8c8   _ECAP4_INT_ISR
0000a8d2   _ECAP5_INT_ISR
0000a8dc   _ECAP6_INT_ISR
0000a8e6   _EQEP1_INT_ISR
0000a8f0   _EQEP2_INT_ISR
0000a8fa   _SPIRXINTA_ISR
0000a904   _SPITXINTA_ISR
0000a90e   _MRINTB_ISR
0000a918   _MXINTB_ISR
0000a922   _MRINTA_ISR
0000a92c   _MXINTA_ISR
0000a936   _DINTCH1_ISR
0000a940   _DINTCH2_ISR
0000a94a   _DINTCH3_ISR
0000a954   _DINTCH4_ISR
0000a95e   _DINTCH5_ISR
0000a968   _DINTCH6_ISR
0000a972   _I2CINT1A_ISR
0000a97c   _I2CINT2A_ISR
0000a986   _SCIRXINTC_ISR
0000a990   _SCITXINTC_ISR
0000a99a   _SCIRXINTA_ISR
0000a9a4   _SCITXINTA_ISR
0000a9ae   _SCIRXINTB_ISR
0000a9b8   _SCITXINTB_ISR
0000a9c2   _ECAN0INTA_ISR
0000a9cc   _ECAN1INTA_ISR
0000a9d6   _ECAN0INTB_ISR
0000a9e0   _ECAN1INTB_ISR
0000a9ea   _XINT3_ISR
0000a9f4   _XINT4_ISR
0000a9fe   _XINT5_ISR
0000aa08   _XINT6_ISR
0000aa12   _XINT7_ISR
0000aa1c   _LVF_ISR
0000aa26   _LUF_ISR
0000aa30   _EMPTY_ISR
0000aa3d   _PIE_RESERVED
0000aa47   _rsvd_ISR
0000aa51   _main
0000abe2   _InitAllMotor
0000ac74   _ScicXmtStatus
0000ad47   _ScicXmtTransferStatus
0000ad63   _ScicInit
0000ad75   _scic_xmit
0000ad86   _ScicXmt
0000adb1   _scic_msg
0000ade0   _RcvMsg2DutyCycle
0000ae35   _ScicFifoInit
0000ae6f   _ScicXmtStart
0000ae74   _FindFrameHeader
0000af27   _InitECan
0000af2c   _InitECana
0000afab   _InitECanb
0000b02a   _InitECanGpio
0000b02f   _InitECanaGpio
0000b03f   _InitECanbGpio
0000b053   _SetVelocity
0000b114   _InitMotorModel
0000b169   LL$$DIV
0000b1a5   LL$$MOD
0000b1df   ULL$$DIV
0000b20e   ULL$$MOD
0000b270   _InitXintf
0000b2c5   _InitXintf32Gpio
0000b30c   _InitXintf16Gpio
0000b366   _InitSysCtrl
0000b36f   _ServiceDog
0000b379   _DisableDog
0000b381   _InitPll
0000b3cd   _InitPeripheralClocks
0000b428   _CsmUnlock
0000b459   _ISRScicRx
0000b4c4   _ISRScicTx
0000b52f   _InitEPwm
0000b530   _InitEPwmGpio
0000b53d   _InitEPwm1Gpio
0000b54f   _InitEPwm2Gpio
0000b561   _InitEPwm3Gpio
0000b575   _InitEPwm4Gpio
0000b589   _InitEPwm5Gpio
0000b59b   _InitEPwm6Gpio
0000b5ad   _InitEPwmSyncGpio
0000b5c1   _InitTzGpio
0000b5d0   FD$$ADD
0000b66c   FD$$DIV
0000b6f7   FS$$DIV
0000b77f   FD$$MPY
0000b802   _InitCpuTimers
0000b843   _ConfigCpuTimer
0000b87e   _exp
0000b8e8   _log
0000b94b   _cos
0000b9ac   _pow
0000ba06   _ISRTimer0
0000ba5e   _sin
0000bab5   __log
0000bb09   _c_int00
0000bb4f   _InitSci
0000bb50   _InitSciGpio
0000bb53   _InitSciaGpio
0000bb68   _InitScibGpio
0000bb7e   _InitScicGpio
0000bb94   _EncoderRd
0000bba9   _BlinkLED
0000bbb2   _GetLED
0000bbb6   _SetLED
0000bbbf   _ReadTension
0000bbd8   _IsTimer1Up
0000bbdc   _ClrTimer1Flag
0000bbe0   _IsTimer2Up
0000bbe4   _ClrTimer2Flag
0000bbe8   _IsTimesUp
0000bbec   _ClrTimesUpFlag
0000bbf0   _TimerSetup
0000bc11   _ldexp
0000bc46   _atoi
0000bc77   _sprintf
0000bca6   _InitSpi
0000bca7   _InitSpiGpio
0000bcaa   _InitSpiaGpio
0000bcd2   _ltoa
0000bcfe   FD$$CMP
0000bd28   L$$DIV
0000bd37   L$$MOD
0000bd45   UL$$DIV
0000bd4c   UL$$MOD
0000bd52   _InitPieCtrl
0000bd71   _EnableInterrupts
0000bd7a   _sqrt
0000bd9d   I$$DIV
0000bdae   I$$MOD
0000bdbf   FD$$TOI
0000bde0   ___memcpy_ff
0000be01   _InitPieVectTable
0000be21   FD$$TOL
0000be40   LL$$CMP
0000be52   ULL$$CMP
0000be5e   FS$$TOFD
0000be7a   L$$TOFD
0000be96   __args_main
0000beaf   C$$EXIT
0000beaf   _abort
0000beb1   _exit
0000bec8   _frexp
0000bede   LL$$MPY
0000bef2   FD$$SUB
0000bf00   _memccpy
0000bf0d   __register_unlock
0000bf11   __register_lock
0000bf15   __nop
0000bf16   FD$$NEG
0000bf27   _strlen
0000bf2f   _memset
0000bf36   _strcpy
0000bf3b   ___cinit__
0000bf3b   ___etext__
0000bf3b   cinit
0000bf3b   etext
0000bfdc   _InitFlash
0000bff7   _DSP28x_usDelay
0000c000   _COM_REG
0000c400   _ScicXmtBufNum
0000c401   _ScicXmtBufIndex
0000c402   _ScicRcvBufNum
0000c403   _ScicRcvBufIndex
0000c440   _ScicRcvBuf
0000c540   _ScicXmtBuf
0000c640   _pQxIIR
0000c642   _pQyIIR
0000c646   _pQzIIR
0000c64a   _MotorEncCnt
0000c651   _TensionCnt
0000c659   _JointEncCnt
0000c662   _torqueOutIIR2
0000c680   _QxIIR
0000c692   _QzIIR
0000c6a4   _QyIIR
0000c6c0   _Motor
0000c7e0   _CpuTimer1
0000c7e8   _CpuTimer2
0000c7f0   _CpuTimer0
0000c7f8   __unlock
0000c7fa   __lock
0000c7fc   __cleanup_ptr
0000c7fe   __dtors_ptr
0000c800   _msg
0000c802   _ans
0000c804   _x
0000c80c   _tension
0000c814   _AddrTrajCurrJointAngles
0000c822   _AddrTrajJointAngles
0000c830   _TensionT
0000c840   _IMUdata
0000c852   _IMUhex
0000c880   _MechPara
0000c8c0   _MM
0000c960   _led
0000c962   _ENCODER_RD
0000c964   _ExRamStart
0000c966   _INC_ENCODER
0000c968   _LED_ADD
0000c96a   _TENSION_SENSOR
0000c96c   _ABS_ENCODER
0000c96e   _TimesUpFlag
0000c96f   _Timer2Flag
0000c970   _Timer1Flag
0000c971   _errno
0000c972   __ctypes_
0000ca74   _PieVectTableInit
0000cbc8   _B
0000cbdc   _K
0000cbf0   _ZeroDutyCycleArray
0000cc14   _RR
0000cc1e   _CURRENT_TENSION_FACTOR
0000cc20   _C2R
0000cc22   _FS
0000cc24   _VLOOP_CONTROL_SP
0000cc4a   _INV_MOTOR_RADIUS
0000cc4c   _LAMBDA
0000cc4e   _DUTY_CYCLE_ZERO
0000cc50   _COPLEY_MAX_VELOCITY
0000cc52   _CONTROL_FREQ
0033fff8   _CsmPwl
00380080   _ADC_cal
ffffffff   ___binit__
ffffffff   ___c_args__
ffffffff   ___pinit__
ffffffff   binit
ffffffff   pinit

[378 symbols]
